; ModuleID = '8/562.c'
source_filename = "8/562.c"
target datalayout = "e-m:e-p270:32:32-p271:32:32-p272:64:64-i64:64-f80:128-n8:16:32:64-S128"
target triple = "x86_64-pc-linux-gnu"

@.str = private unnamed_addr constant [5 x i8] c"%d%d\00", align 1
@.str.1 = private unnamed_addr constant [3 x i8] c"%d\00", align 1
@.str.2 = private unnamed_addr constant [4 x i8] c"%d \00", align 1

; Function Attrs: noinline nounwind uwtable
define dso_local void @main() #0 {
  %1 = alloca i32, align 4
  %2 = alloca i32, align 4
  %3 = alloca i32, align 4
  %4 = alloca i32, align 4
  %5 = alloca i32, align 4
  %6 = alloca [60 x i32], align 16
  %7 = alloca [30 x i32], align 16
  %8 = bitcast [60 x i32]* %6 to i8*
  call void @llvm.memset.p0i8.i64(i8* align 16 %8, i8 0, i64 240, i1 false)
  %9 = bitcast [30 x i32]* %7 to i8*
  call void @llvm.memset.p0i8.i64(i8* align 16 %9, i8 0, i64 120, i1 false)
  %10 = call i32 (i8*, ...) @__isoc99_scanf(i8* getelementptr inbounds ([5 x i8], [5 x i8]* @.str, i64 0, i64 0), i32* %1, i32* %2)
  store i32 0, i32* %3, align 4
  br label %11

11:                                               ; preds = %20, %0
  %12 = load i32, i32* %3, align 4
  %13 = load i32, i32* %1, align 4
  %14 = icmp slt i32 %12, %13
  br i1 %14, label %15, label %23

15:                                               ; preds = %11
  %16 = load i32, i32* %3, align 4
  %17 = sext i32 %16 to i64
  %18 = getelementptr inbounds [60 x i32], [60 x i32]* %6, i64 0, i64 %17
  %19 = call i32 (i8*, ...) @__isoc99_scanf(i8* getelementptr inbounds ([3 x i8], [3 x i8]* @.str.1, i64 0, i64 0), i32* %18)
  br label %20

20:                                               ; preds = %15
  %21 = load i32, i32* %3, align 4
  %22 = add nsw i32 %21, 1
  store i32 %22, i32* %3, align 4
  br label %11

23:                                               ; preds = %11
  store i32 0, i32* %3, align 4
  br label %24

24:                                               ; preds = %64, %23
  %25 = load i32, i32* %3, align 4
  %26 = load i32, i32* %1, align 4
  %27 = icmp slt i32 %25, %26
  br i1 %27, label %28, label %67

28:                                               ; preds = %24
  store i32 0, i32* %4, align 4
  br label %29

29:                                               ; preds = %60, %28
  %30 = load i32, i32* %4, align 4
  %31 = load i32, i32* %1, align 4
  %32 = icmp slt i32 %30, %31
  br i1 %32, label %33, label %63

33:                                               ; preds = %29
  %34 = load i32, i32* %3, align 4
  %35 = sext i32 %34 to i64
  %36 = getelementptr inbounds [60 x i32], [60 x i32]* %6, i64 0, i64 %35
  %37 = load i32, i32* %36, align 4
  %38 = load i32, i32* %4, align 4
  %39 = sext i32 %38 to i64
  %40 = getelementptr inbounds [60 x i32], [60 x i32]* %6, i64 0, i64 %39
  %41 = load i32, i32* %40, align 4
  %42 = icmp slt i32 %37, %41
  br i1 %42, label %43, label %59

43:                                               ; preds = %33
  %44 = load i32, i32* %3, align 4
  %45 = sext i32 %44 to i64
  %46 = getelementptr inbounds [60 x i32], [60 x i32]* %6, i64 0, i64 %45
  %47 = load i32, i32* %46, align 4
  store i32 %47, i32* %5, align 4
  %48 = load i32, i32* %4, align 4
  %49 = sext i32 %48 to i64
  %50 = getelementptr inbounds [60 x i32], [60 x i32]* %6, i64 0, i64 %49
  %51 = load i32, i32* %50, align 4
  %52 = load i32, i32* %3, align 4
  %53 = sext i32 %52 to i64
  %54 = getelementptr inbounds [60 x i32], [60 x i32]* %6, i64 0, i64 %53
  store i32 %51, i32* %54, align 4
  %55 = load i32, i32* %5, align 4
  %56 = load i32, i32* %4, align 4
  %57 = sext i32 %56 to i64
  %58 = getelementptr inbounds [60 x i32], [60 x i32]* %6, i64 0, i64 %57
  store i32 %55, i32* %58, align 4
  br label %59

59:                                               ; preds = %43, %33
  br label %60

60:                                               ; preds = %59
  %61 = load i32, i32* %4, align 4
  %62 = add nsw i32 %61, 1
  store i32 %62, i32* %4, align 4
  br label %29

63:                                               ; preds = %29
  br label %64

64:                                               ; preds = %63
  %65 = load i32, i32* %3, align 4
  %66 = add nsw i32 %65, 1
  store i32 %66, i32* %3, align 4
  br label %24

67:                                               ; preds = %24
  store i32 0, i32* %3, align 4
  br label %68

68:                                               ; preds = %77, %67
  %69 = load i32, i32* %3, align 4
  %70 = load i32, i32* %2, align 4
  %71 = icmp slt i32 %69, %70
  br i1 %71, label %72, label %80

72:                                               ; preds = %68
  %73 = load i32, i32* %3, align 4
  %74 = sext i32 %73 to i64
  %75 = getelementptr inbounds [30 x i32], [30 x i32]* %7, i64 0, i64 %74
  %76 = call i32 (i8*, ...) @__isoc99_scanf(i8* getelementptr inbounds ([3 x i8], [3 x i8]* @.str.1, i64 0, i64 0), i32* %75)
  br label %77

77:                                               ; preds = %72
  %78 = load i32, i32* %3, align 4
  %79 = add nsw i32 %78, 1
  store i32 %79, i32* %3, align 4
  br label %68

80:                                               ; preds = %68
  store i32 0, i32* %3, align 4
  br label %81

81:                                               ; preds = %121, %80
  %82 = load i32, i32* %3, align 4
  %83 = load i32, i32* %2, align 4
  %84 = icmp slt i32 %82, %83
  br i1 %84, label %85, label %124

85:                                               ; preds = %81
  store i32 0, i32* %4, align 4
  br label %86

86:                                               ; preds = %117, %85
  %87 = load i32, i32* %4, align 4
  %88 = load i32, i32* %2, align 4
  %89 = icmp slt i32 %87, %88
  br i1 %89, label %90, label %120

90:                                               ; preds = %86
  %91 = load i32, i32* %3, align 4
  %92 = sext i32 %91 to i64
  %93 = getelementptr inbounds [30 x i32], [30 x i32]* %7, i64 0, i64 %92
  %94 = load i32, i32* %93, align 4
  %95 = load i32, i32* %4, align 4
  %96 = sext i32 %95 to i64
  %97 = getelementptr inbounds [30 x i32], [30 x i32]* %7, i64 0, i64 %96
  %98 = load i32, i32* %97, align 4
  %99 = icmp slt i32 %94, %98
  br i1 %99, label %100, label %116

100:                                              ; preds = %90
  %101 = load i32, i32* %3, align 4
  %102 = sext i32 %101 to i64
  %103 = getelementptr inbounds [30 x i32], [30 x i32]* %7, i64 0, i64 %102
  %104 = load i32, i32* %103, align 4
  store i32 %104, i32* %5, align 4
  %105 = load i32, i32* %4, align 4
  %106 = sext i32 %105 to i64
  %107 = getelementptr inbounds [30 x i32], [30 x i32]* %7, i64 0, i64 %106
  %108 = load i32, i32* %107, align 4
  %109 = load i32, i32* %3, align 4
  %110 = sext i32 %109 to i64
  %111 = getelementptr inbounds [30 x i32], [30 x i32]* %7, i64 0, i64 %110
  store i32 %108, i32* %111, align 4
  %112 = load i32, i32* %5, align 4
  %113 = load i32, i32* %4, align 4
  %114 = sext i32 %113 to i64
  %115 = getelementptr inbounds [30 x i32], [30 x i32]* %7, i64 0, i64 %114
  store i32 %112, i32* %115, align 4
  br label %116

116:                                              ; preds = %100, %90
  br label %117

117:                                              ; preds = %116
  %118 = load i32, i32* %4, align 4
  %119 = add nsw i32 %118, 1
  store i32 %119, i32* %4, align 4
  br label %86

120:                                              ; preds = %86
  br label %121

121:                                              ; preds = %120
  %122 = load i32, i32* %3, align 4
  %123 = add nsw i32 %122, 1
  store i32 %123, i32* %3, align 4
  br label %81

124:                                              ; preds = %81
  store i32 0, i32* %3, align 4
  br label %125

125:                                              ; preds = %135, %124
  %126 = load i32, i32* %3, align 4
  %127 = load i32, i32* %1, align 4
  %128 = icmp slt i32 %126, %127
  br i1 %128, label %129, label %138

129:                                              ; preds = %125
  %130 = load i32, i32* %3, align 4
  %131 = sext i32 %130 to i64
  %132 = getelementptr inbounds [60 x i32], [60 x i32]* %6, i64 0, i64 %131
  %133 = load i32, i32* %132, align 4
  %134 = call i32 (i8*, ...) @printf(i8* getelementptr inbounds ([4 x i8], [4 x i8]* @.str.2, i64 0, i64 0), i32 %133)
  br label %135

135:                                              ; preds = %129
  %136 = load i32, i32* %3, align 4
  %137 = add nsw i32 %136, 1
  store i32 %137, i32* %3, align 4
  br label %125

138:                                              ; preds = %125
  store i32 0, i32* %3, align 4
  br label %139

139:                                              ; preds = %150, %138
  %140 = load i32, i32* %3, align 4
  %141 = load i32, i32* %2, align 4
  %142 = sub nsw i32 %141, 1
  %143 = icmp slt i32 %140, %142
  br i1 %143, label %144, label %153

144:                                              ; preds = %139
  %145 = load i32, i32* %3, align 4
  %146 = sext i32 %145 to i64
  %147 = getelementptr inbounds [30 x i32], [30 x i32]* %7, i64 0, i64 %146
  %148 = load i32, i32* %147, align 4
  %149 = call i32 (i8*, ...) @printf(i8* getelementptr inbounds ([4 x i8], [4 x i8]* @.str.2, i64 0, i64 0), i32 %148)
  br label %150

150:                                              ; preds = %144
  %151 = load i32, i32* %3, align 4
  %152 = add nsw i32 %151, 1
  store i32 %152, i32* %3, align 4
  br label %139

153:                                              ; preds = %139
  %154 = load i32, i32* %2, align 4
  %155 = sub nsw i32 %154, 1
  %156 = sext i32 %155 to i64
  %157 = getelementptr inbounds [30 x i32], [30 x i32]* %7, i64 0, i64 %156
  %158 = load i32, i32* %157, align 4
  %159 = call i32 (i8*, ...) @printf(i8* getelementptr inbounds ([3 x i8], [3 x i8]* @.str.1, i64 0, i64 0), i32 %158)
  ret void
}

; Function Attrs: argmemonly nounwind willreturn
declare void @llvm.memset.p0i8.i64(i8* nocapture writeonly, i8, i64, i1 immarg) #1

declare dso_local i32 @__isoc99_scanf(i8*, ...) #2

declare dso_local i32 @printf(i8*, ...) #2


!llvm.module.flags = !{!0}
!llvm.ident = !{!1}

!0 = !{i32 1, !"wchar_size", i32 4}
!1 = !{!"clang version 10.0.0-4ubuntu1 "}
